; Function Attrs: nounwind uwtable
define internal noundef i32 @lagfun_framed32(ptr noundef readonly captures(none) %0, ptr noundef readonly captures(none) %1, i32 noundef %2, i32 noundef %3) #2 {
  %5 = getelementptr inbounds nuw i8, ptr %0, i64 72
  %6 = load ptr, ptr %5, align 8, !tbaa !4
  %7 = getelementptr inbounds nuw i8, ptr %6, i64 8
  %8 = load float, ptr %7, align 8, !tbaa !60
  %9 = load ptr, ptr %1, align 8, !tbaa !43
  %10 = getelementptr inbounds nuw i8, ptr %1, i64 8
  %11 = load ptr, ptr %10, align 8, !tbaa !41
  %12 = getelementptr inbounds nuw i8, ptr %6, i64 20
  %13 = load i32, ptr %12, align 4, !tbaa !20
  %14 = icmp sgt i32 %13, 0
  br i1 %14, label %.lr.ph, label %._crit_edge

.lr.ph:                                           ; preds = %4
  %15 = getelementptr inbounds nuw i8, ptr %6, i64 56
  %16 = add nsw i32 %2, 1
  %17 = getelementptr inbounds nuw i8, ptr %6, i64 40
  %18 = getelementptr inbounds nuw i8, ptr %9, i64 64
  %19 = getelementptr inbounds nuw i8, ptr %11, i64 64
  %20 = getelementptr inbounds nuw i8, ptr %6, i64 12
  %21 = getelementptr inbounds nuw i8, ptr %6, i64 72
  %22 = getelementptr inbounds nuw i8, ptr %6, i64 24
  br label %23

._crit_edge:                                      ; preds = %.loopexit, %4
  ret i32 0

23:                                               ; preds = %.lr.ph, %.loopexit
  %24 = phi i32 [ %13, %.lr.ph ], [ %83, %.loopexit ]
  %indvars.iv86 = phi i64 [ 0, %.lr.ph ], [ %indvars.iv.next87, %.loopexit ]
  %25 = getelementptr inbounds nuw [4 x i32], ptr %15, i64 0, i64 %indvars.iv86
  %26 = load i32, ptr %25, align 4, !tbaa !46
  %27 = mul nsw i32 %26, %2
  %28 = sdiv i32 %27, %3
  %29 = mul nsw i32 %26, %16
  %30 = sdiv i32 %29, %3
  %31 = getelementptr inbounds nuw [4 x i32], ptr %17, i64 0, i64 %indvars.iv86
  %32 = load i32, ptr %31, align 4, !tbaa !46
  %33 = getelementptr inbounds nuw [8 x ptr], ptr %9, i64 0, i64 %indvars.iv86
  %34 = load ptr, ptr %33, align 8, !tbaa !61
  %35 = getelementptr inbounds nuw [8 x i32], ptr %18, i64 0, i64 %indvars.iv86
  %36 = load i32, ptr %35, align 4, !tbaa !46
  %37 = mul nsw i32 %36, %28
  %38 = sext i32 %37 to i64
  %39 = lshr i64 %38, 2
  %40 = getelementptr inbounds nuw float, ptr %34, i64 %39
  %41 = getelementptr inbounds nuw [8 x ptr], ptr %11, i64 0, i64 %indvars.iv86
  %42 = load ptr, ptr %41, align 8, !tbaa !61
  %43 = getelementptr inbounds nuw [8 x i32], ptr %19, i64 0, i64 %indvars.iv86
  %44 = load i32, ptr %43, align 4, !tbaa !46
  %45 = mul nsw i32 %44, %28
  %46 = sext i32 %45 to i64
  %47 = lshr i64 %46, 2
  %48 = getelementptr inbounds nuw float, ptr %42, i64 %47
  %49 = trunc nuw nsw i64 %indvars.iv86 to i32
  %50 = shl nuw i32 1, %49
  %51 = load i32, ptr %20, align 4, !tbaa !62
  %52 = and i32 %51, %50
  %.not = icmp eq i32 %52, 0
  br i1 %.not, label %53, label %57

53:                                               ; preds = %23
  %54 = getelementptr inbounds nuw [4 x i32], ptr %22, i64 0, i64 %indvars.iv86
  %55 = load i32, ptr %54, align 4, !tbaa !46
  %56 = sub nsw i32 %30, %28
  tail call void @av_image_copy_plane(ptr noundef %48, i32 noundef %44, ptr noundef %40, i32 noundef %36, i32 noundef %55, i32 noundef %56) #7
  %.pre = load i32, ptr %12, align 4, !tbaa !20
  br label %.loopexit

57:                                               ; preds = %23
  %58 = icmp slt i32 %28, %30
  br i1 %58, label %.preheader.lr.ph, label %.loopexit

.preheader.lr.ph:                                 ; preds = %57
  %59 = icmp sgt i32 %32, 0
  %60 = sext i32 %36 to i64
  %61 = lshr i64 %60, 2
  %62 = sext i32 %32 to i64
  %63 = sext i32 %44 to i64
  %64 = lshr i64 %63, 2
  br i1 %59, label %.preheader.us.preheader, label %.loopexit

.preheader.us.preheader:                          ; preds = %.preheader.lr.ph
  %65 = getelementptr inbounds nuw [4 x ptr], ptr %21, i64 0, i64 %indvars.iv86
  %66 = load ptr, ptr %65, align 8, !tbaa !58
  %67 = mul nsw i32 %32, %28
  %68 = sext i32 %67 to i64
  %69 = getelementptr inbounds float, ptr %66, i64 %68
  %wide.trip.count = zext nneg i32 %32 to i64
  br label %.preheader.us

.preheader.us:                                    ; preds = %.preheader.us.preheader, %._crit_edge.us
  %.07281.us = phi i32 [ %82, %._crit_edge.us ], [ %28, %.preheader.us.preheader ]
  %.07380.us = phi ptr [ %81, %._crit_edge.us ], [ %48, %.preheader.us.preheader ]
  %.07479.us = phi ptr [ %80, %._crit_edge.us ], [ %69, %.preheader.us.preheader ]
  %.07578.us = phi ptr [ %79, %._crit_edge.us ], [ %40, %.preheader.us.preheader ]
  br label %70

70:                                               ; preds = %.preheader.us, %70
  %indvars.iv = phi i64 [ 0, %.preheader.us ], [ %indvars.iv.next, %70 ]
  %71 = getelementptr inbounds nuw float, ptr %.07578.us, i64 %indvars.iv
  %72 = load float, ptr %71, align 4, !tbaa !64
  %73 = getelementptr inbounds nuw float, ptr %.07479.us, i64 %indvars.iv
  %74 = load float, ptr %73, align 4, !tbaa !64
  %75 = fmul nsz float %8, %74
  %76 = tail call nsz float @llvm.maxnum.f32(float %72, float %75)
  store float %76, ptr %73, align 4, !tbaa !64
  %77 = load float, ptr %71, align 4, !tbaa !64
  %78 = getelementptr inbounds nuw float, ptr %.07380.us, i64 %indvars.iv
  store float %77, ptr %78, align 4, !tbaa !64
  %indvars.iv.next = add nuw nsw i64 %indvars.iv, 1
  %exitcond.not = icmp eq i64 %indvars.iv.next, %wide.trip.count
  br i1 %exitcond.not, label %._crit_edge.us, label %70, !llvm.loop !82

._crit_edge.us:                                   ; preds = %70
  %79 = getelementptr inbounds nuw float, ptr %.07578.us, i64 %61
  %80 = getelementptr inbounds nuw float, ptr %.07479.us, i64 %62
  %81 = getelementptr inbounds nuw float, ptr %.07380.us, i64 %64
  %82 = add nsw i32 %.07281.us, 1
  %exitcond85.not = icmp eq i32 %82, %30
  br i1 %exitcond85.not, label %.loopexit, label %.preheader.us, !llvm.loop !83

.loopexit:                                        ; preds = %._crit_edge.us, %.preheader.lr.ph, %57, %53
  %83 = phi i32 [ %24, %57 ], [ %.pre, %53 ], [ %24, %.preheader.lr.ph ], [ %24, %._crit_edge.us ]
  %indvars.iv.next87 = add nuw nsw i64 %indvars.iv86, 1
  %84 = sext i32 %83 to i64
  %85 = icmp slt i64 %indvars.iv.next87, %84
  br i1 %85, label %23, label %._crit_edge, !llvm.loop !84
}